target datalayout = "e-m:e-p270:32:32-p271:32:32-p272:64:64-i64:64-i128:128-f80:128-n8:16:32:64-S128"
target triple = "x86_64-pc-linux-gnu"

%struct.Vta_Man_t_ = type { ptr, ptr, i32, i32, i32, ptr, ptr, ptr, i32, i32, ptr, i32, i32, i32, ptr, ptr, i32, i32, ptr, ptr, ptr, i64, i64, i64, i64 }
%struct.Vta_Obj_t_ = type { i32, i32, i32, i32 }

; Function Attrs: inlinehint nounwind uwtable
define internal i32 @Vga_ManHash(i32 noundef %0, i32 noundef %1, i32 noundef %2) #2 {
  %4 = alloca i32, align 4
  %5 = alloca i32, align 4
  %6 = alloca i32, align 4
  store i32 %0, ptr %4, align 4, !tbaa !8
  store i32 %1, ptr %5, align 4, !tbaa !8
  store i32 %2, ptr %6, align 4, !tbaa !8
  %7 = load i32, ptr %4, align 4, !tbaa !8
  %8 = load i32, ptr %5, align 4, !tbaa !8
  %9 = add nsw i32 %7, %8
  %10 = load i32, ptr %4, align 4, !tbaa !8
  %11 = load i32, ptr %5, align 4, !tbaa !8
  %12 = add nsw i32 %10, %11
  %13 = add nsw i32 %12, 1
  %14 = mul nsw i32 %9, %13
  %15 = load i32, ptr %6, align 4, !tbaa !8
  %16 = urem i32 %14, %15
  ret i32 %16
}

; Function Attrs: inlinehint nounwind uwtable
define internal ptr @Vga_ManLookup(ptr noundef %0, i32 noundef %1, i32 noundef %2) #2 {
  %4 = alloca ptr, align 8
  %5 = alloca i32, align 4
  %6 = alloca i32, align 4
  %7 = alloca ptr, align 8
  %8 = alloca ptr, align 8
  store ptr %0, ptr %4, align 8, !tbaa !37
  store i32 %1, ptr %5, align 4, !tbaa !8
  store i32 %2, ptr %6, align 4, !tbaa !8
  call void @llvm.lifetime.start.p0(i64 8, ptr %7) #13
  call void @llvm.lifetime.start.p0(i64 8, ptr %8) #13
  %9 = load ptr, ptr %4, align 8, !tbaa !37
  %10 = getelementptr inbounds nuw %struct.Vta_Man_t_, ptr %9, i32 0, i32 5
  %11 = load ptr, ptr %10, align 8, !tbaa !132
  %12 = load i32, ptr %5, align 4, !tbaa !8
  %13 = load i32, ptr %6, align 4, !tbaa !8
  %14 = load ptr, ptr %4, align 8, !tbaa !37
  %15 = getelementptr inbounds nuw %struct.Vta_Man_t_, ptr %14, i32 0, i32 4
  %16 = load i32, ptr %15, align 8, !tbaa !131
  %17 = call i32 @Vga_ManHash(i32 noundef %12, i32 noundef %13, i32 noundef %16)
  %18 = sext i32 %17 to i64
  %19 = getelementptr inbounds i32, ptr %11, i64 %18
  store ptr %19, ptr %8, align 8, !tbaa !34
  %20 = load ptr, ptr %4, align 8, !tbaa !37
  %21 = load ptr, ptr %8, align 8, !tbaa !34
  %22 = load i32, ptr %21, align 4, !tbaa !8
  %23 = call ptr @Vta_ManObj(ptr noundef %20, i32 noundef %22)
  store ptr %23, ptr %7, align 8, !tbaa !57
  br label %24

24:                                               ; preds = %41, %3
  %25 = load ptr, ptr %7, align 8, !tbaa !57
  %26 = icmp ne ptr %25, null
  br i1 %26, label %27, label %48

27:                                               ; preds = %24
  %28 = load ptr, ptr %7, align 8, !tbaa !57
  %29 = getelementptr inbounds nuw %struct.Vta_Obj_t_, ptr %28, i32 0, i32 0
  %30 = load i32, ptr %29, align 4, !tbaa !58
  %31 = load i32, ptr %5, align 4, !tbaa !8
  %32 = icmp eq i32 %30, %31
  br i1 %32, label %33, label %40

33:                                               ; preds = %27
  %34 = load ptr, ptr %7, align 8, !tbaa !57
  %35 = getelementptr inbounds nuw %struct.Vta_Obj_t_, ptr %34, i32 0, i32 1
  %36 = load i32, ptr %35, align 4, !tbaa !64
  %37 = load i32, ptr %6, align 4, !tbaa !8
  %38 = icmp eq i32 %36, %37
  br i1 %38, label %39, label %40

39:                                               ; preds = %33
  br label %48

40:                                               ; preds = %33, %27
  br label %41

41:                                               ; preds = %40
  %42 = load ptr, ptr %7, align 8, !tbaa !57
  %43 = getelementptr inbounds nuw %struct.Vta_Obj_t_, ptr %42, i32 0, i32 2
  store ptr %43, ptr %8, align 8, !tbaa !34
  %44 = load ptr, ptr %4, align 8, !tbaa !37
  %45 = load ptr, ptr %8, align 8, !tbaa !34
  %46 = load i32, ptr %45, align 4, !tbaa !8
  %47 = call ptr @Vta_ManObj(ptr noundef %44, i32 noundef %46)
  store ptr %47, ptr %7, align 8, !tbaa !57
  br label %24, !llvm.loop !209

48:                                               ; preds = %39, %24
  %49 = load ptr, ptr %8, align 8, !tbaa !34
  call void @llvm.lifetime.end.p0(i64 8, ptr %8) #13
  call void @llvm.lifetime.end.p0(i64 8, ptr %7) #13
  ret ptr %49
}

; Function Attrs: inlinehint nounwind uwtable
define internal ptr @Vta_ManObj(ptr noundef %0, i32 noundef %1) #2 {
  %3 = alloca ptr, align 8
  %4 = alloca i32, align 4
  store ptr %0, ptr %3, align 8, !tbaa !37
  store i32 %1, ptr %4, align 4, !tbaa !8
  %5 = load i32, ptr %4, align 4, !tbaa !8
  %6 = icmp ne i32 %5, 0
  br i1 %6, label %7, label %14

7:                                                ; preds = %2
  %8 = load ptr, ptr %3, align 8, !tbaa !37
  %9 = getelementptr inbounds nuw %struct.Vta_Man_t_, ptr %8, i32 0, i32 6
  %10 = load ptr, ptr %9, align 8, !tbaa !79
  %11 = load i32, ptr %4, align 4, !tbaa !8
  %12 = sext i32 %11 to i64
  %13 = getelementptr inbounds %struct.Vta_Obj_t_, ptr %10, i64 %12
  br label %15

14:                                               ; preds = %2
  br label %15

15:                                               ; preds = %14, %7
  %16 = phi ptr [ %13, %7 ], [ null, %14 ]
  ret ptr %16
}

; Function Attrs: inlinehint nounwind uwtable
define internal i32 @Abc_PrimeCudd(i32 noundef %0) #2 {
  %2 = alloca i32, align 4
  %3 = alloca i32, align 4
  %4 = alloca i32, align 4
  store i32 %0, ptr %2, align 4, !tbaa !8
  call void @llvm.lifetime.start.p0(i64 4, ptr %3) #13
  call void @llvm.lifetime.start.p0(i64 4, ptr %4) #13
  %5 = load i32, ptr %2, align 4, !tbaa !8
  %6 = add i32 %5, -1
  store i32 %6, ptr %2, align 4, !tbaa !8
  br label %7

7:                                                ; preds = %32, %1
  %8 = load i32, ptr %2, align 4, !tbaa !8
  %9 = add i32 %8, 1
  store i32 %9, ptr %2, align 4, !tbaa !8
  %10 = load i32, ptr %2, align 4, !tbaa !8
  %11 = and i32 %10, 1
  %12 = icmp ne i32 %11, 0
  br i1 %12, label %13, label %30

13:                                               ; preds = %7
  store i32 1, ptr %4, align 4, !tbaa !8
  store i32 3, ptr %3, align 4, !tbaa !8
  br label %14

14:                                               ; preds = %26, %13
  %15 = load i32, ptr %3, align 4, !tbaa !8
  %16 = load i32, ptr %3, align 4, !tbaa !8
  %17 = mul nsw i32 %15, %16
  %18 = load i32, ptr %2, align 4, !tbaa !8
  %19 = icmp ule i32 %17, %18
  br i1 %19, label %20, label %29

20:                                               ; preds = %14
  %21 = load i32, ptr %2, align 4, !tbaa !8
  %22 = load i32, ptr %3, align 4, !tbaa !8
  %23 = urem i32 %21, %22
  %24 = icmp eq i32 %23, 0
  br i1 %24, label %25, label %26

25:                                               ; preds = %20
  store i32 0, ptr %4, align 4, !tbaa !8
  br label %29

26:                                               ; preds = %20
  %27 = load i32, ptr %3, align 4, !tbaa !8
  %28 = add nsw i32 %27, 2
  store i32 %28, ptr %3, align 4, !tbaa !8
  br label %14, !llvm.loop !148

29:                                               ; preds = %25, %14
  br label %31

30:                                               ; preds = %7
  store i32 0, ptr %4, align 4, !tbaa !8
  br label %31

31:                                               ; preds = %30, %29
  br label %32

32:                                               ; preds = %31
  %33 = load i32, ptr %4, align 4, !tbaa !8
  %34 = icmp ne i32 %33, 0
  %35 = xor i1 %34, true
  br i1 %35, label %7, label %36, !llvm.loop !149

36:                                               ; preds = %32
  %37 = load i32, ptr %2, align 4, !tbaa !8
  call void @llvm.lifetime.end.p0(i64 4, ptr %4) #13
  call void @llvm.lifetime.end.p0(i64 4, ptr %3) #13
  ret i32 %37
}

; Function Attrs: inlinehint nounwind uwtable
define internal ptr @Vga_ManFindOrAdd(ptr noundef %0, i32 noundef %1, i32 noundef %2) #2 {
  %4 = alloca ptr, align 8
  %5 = alloca ptr, align 8
  %6 = alloca i32, align 4
  %7 = alloca i32, align 4
  %8 = alloca ptr, align 8
  %9 = alloca i32, align 4
  %10 = alloca ptr, align 8
  %11 = alloca i32, align 4
  store ptr %0, ptr %5, align 8, !tbaa !37
  store i32 %1, ptr %6, align 4, !tbaa !8
  store i32 %2, ptr %7, align 4, !tbaa !8
  call void @llvm.lifetime.start.p0(i64 8, ptr %8) #13
  call void @llvm.lifetime.start.p0(i64 4, ptr %9) #13
  call void @llvm.lifetime.start.p0(i64 8, ptr %10) #13
  %12 = load ptr, ptr %5, align 8, !tbaa !37
  %13 = getelementptr inbounds nuw %struct.Vta_Man_t_, ptr %12, i32 0, i32 2
  %14 = load i32, ptr %13, align 8, !tbaa !56
  %15 = load ptr, ptr %5, align 8, !tbaa !37
  %16 = getelementptr inbounds nuw %struct.Vta_Man_t_, ptr %15, i32 0, i32 3
  %17 = load i32, ptr %16, align 4, !tbaa !130
  %18 = icmp eq i32 %14, %17
  br i1 %18, label %19, label %120

19:                                               ; preds = %3
  %20 = load ptr, ptr %5, align 8, !tbaa !37
  %21 = getelementptr inbounds nuw %struct.Vta_Man_t_, ptr %20, i32 0, i32 6
  %22 = load ptr, ptr %21, align 8, !tbaa !79
  %23 = icmp ne ptr %22, null
  br i1 %23, label %24, label %35

24:                                               ; preds = %19
  %25 = load ptr, ptr %5, align 8, !tbaa !37
  %26 = getelementptr inbounds nuw %struct.Vta_Man_t_, ptr %25, i32 0, i32 6
  %27 = load ptr, ptr %26, align 8, !tbaa !79
  %28 = load ptr, ptr %5, align 8, !tbaa !37
  %29 = getelementptr inbounds nuw %struct.Vta_Man_t_, ptr %28, i32 0, i32 3
  %30 = load i32, ptr %29, align 4, !tbaa !130
  %31 = mul nsw i32 2, %30
  %32 = sext i32 %31 to i64
  %33 = mul i64 16, %32
  %34 = call ptr @realloc(ptr noundef %27, i64 noundef %33) #17
  br label %43

35:                                               ; preds = %19
  %36 = load ptr, ptr %5, align 8, !tbaa !37
  %37 = getelementptr inbounds nuw %struct.Vta_Man_t_, ptr %36, i32 0, i32 3
  %38 = load i32, ptr %37, align 4, !tbaa !130
  %39 = mul nsw i32 2, %38
  %40 = sext i32 %39 to i64
  %41 = mul i64 16, %40
  %42 = call noalias ptr @malloc(i64 noundef %41) #14
  br label %43

43:                                               ; preds = %35, %24
  %44 = phi ptr [ %34, %24 ], [ %42, %35 ]
  %45 = load ptr, ptr %5, align 8, !tbaa !37
  %46 = getelementptr inbounds nuw %struct.Vta_Man_t_, ptr %45, i32 0, i32 6
  store ptr %44, ptr %46, align 8, !tbaa !79
  %47 = load ptr, ptr %5, align 8, !tbaa !37
  %48 = getelementptr inbounds nuw %struct.Vta_Man_t_, ptr %47, i32 0, i32 6
  %49 = load ptr, ptr %48, align 8, !tbaa !79
  %50 = load ptr, ptr %5, align 8, !tbaa !37
  %51 = getelementptr inbounds nuw %struct.Vta_Man_t_, ptr %50, i32 0, i32 3
  %52 = load i32, ptr %51, align 4, !tbaa !130
  %53 = sext i32 %52 to i64
  %54 = getelementptr inbounds %struct.Vta_Obj_t_, ptr %49, i64 %53
  %55 = load ptr, ptr %5, align 8, !tbaa !37
  %56 = getelementptr inbounds nuw %struct.Vta_Man_t_, ptr %55, i32 0, i32 3
  %57 = load i32, ptr %56, align 4, !tbaa !130
  %58 = sext i32 %57 to i64
  %59 = mul i64 %58, 16
  call void @llvm.memset.p0.i64(ptr align 4 %54, i8 0, i64 %59, i1 false)
  %60 = load ptr, ptr %5, align 8, !tbaa !37
  %61 = getelementptr inbounds nuw %struct.Vta_Man_t_, ptr %60, i32 0, i32 3
  %62 = load i32, ptr %61, align 4, !tbaa !130
  %63 = mul nsw i32 %62, 2
  store i32 %63, ptr %61, align 4, !tbaa !130
  %64 = load ptr, ptr %5, align 8, !tbaa !37
  %65 = getelementptr inbounds nuw %struct.Vta_Man_t_, ptr %64, i32 0, i32 5
  %66 = load ptr, ptr %65, align 8, !tbaa !132
  %67 = icmp ne ptr %66, null
  br i1 %67, label %68, label %74

68:                                               ; preds = %43
  %69 = load ptr, ptr %5, align 8, !tbaa !37
  %70 = getelementptr inbounds nuw %struct.Vta_Man_t_, ptr %69, i32 0, i32 5
  %71 = load ptr, ptr %70, align 8, !tbaa !132
  call void @free(ptr noundef %71) #13
  %72 = load ptr, ptr %5, align 8, !tbaa !37
  %73 = getelementptr inbounds nuw %struct.Vta_Man_t_, ptr %72, i32 0, i32 5
  store ptr null, ptr %73, align 8, !tbaa !132
  br label %75

74:                                               ; preds = %43
  br label %75

75:                                               ; preds = %74, %68
  %76 = load ptr, ptr %5, align 8, !tbaa !37
  %77 = getelementptr inbounds nuw %struct.Vta_Man_t_, ptr %76, i32 0, i32 4
  %78 = load i32, ptr %77, align 8, !tbaa !131
  %79 = mul nsw i32 2, %78
  %80 = call i32 @Abc_PrimeCudd(i32 noundef %79)
  %81 = load ptr, ptr %5, align 8, !tbaa !37
  %82 = getelementptr inbounds nuw %struct.Vta_Man_t_, ptr %81, i32 0, i32 4
  store i32 %80, ptr %82, align 8, !tbaa !131
  %83 = load ptr, ptr %5, align 8, !tbaa !37
  %84 = getelementptr inbounds nuw %struct.Vta_Man_t_, ptr %83, i32 0, i32 4
  %85 = load i32, ptr %84, align 8, !tbaa !131
  %86 = sext i32 %85 to i64
  %87 = call noalias ptr @calloc(i64 noundef %86, i64 noundef 4) #15
  %88 = load ptr, ptr %5, align 8, !tbaa !37
  %89 = getelementptr inbounds nuw %struct.Vta_Man_t_, ptr %88, i32 0, i32 5
  store ptr %87, ptr %89, align 8, !tbaa !132
  store i32 1, ptr %9, align 4, !tbaa !8
  br label %90

90:                                               ; preds = %116, %75
  %91 = load i32, ptr %9, align 4, !tbaa !8
  %92 = load ptr, ptr %5, align 8, !tbaa !37
  %93 = getelementptr inbounds nuw %struct.Vta_Man_t_, ptr %92, i32 0, i32 2
  %94 = load i32, ptr %93, align 8, !tbaa !56
  %95 = icmp slt i32 %91, %94
  br i1 %95, label %96, label %101

96:                                               ; preds = %90
  %97 = load ptr, ptr %5, align 8, !tbaa !37
  %98 = load i32, ptr %9, align 4, !tbaa !8
  %99 = call ptr @Vta_ManObj(ptr noundef %97, i32 noundef %98)
  store ptr %99, ptr %8, align 8, !tbaa !57
  %100 = icmp ne ptr %99, null
  br label %101

101:                                              ; preds = %96, %90
  %102 = phi i1 [ false, %90 ], [ %100, %96 ]
  br i1 %102, label %103, label %119

103:                                              ; preds = %101
  %104 = load ptr, ptr %8, align 8, !tbaa !57
  %105 = getelementptr inbounds nuw %struct.Vta_Obj_t_, ptr %104, i32 0, i32 2
  store i32 0, ptr %105, align 4, !tbaa !174
  %106 = load ptr, ptr %5, align 8, !tbaa !37
  %107 = load ptr, ptr %8, align 8, !tbaa !57
  %108 = getelementptr inbounds nuw %struct.Vta_Obj_t_, ptr %107, i32 0, i32 0
  %109 = load i32, ptr %108, align 4, !tbaa !58
  %110 = load ptr, ptr %8, align 8, !tbaa !57
  %111 = getelementptr inbounds nuw %struct.Vta_Obj_t_, ptr %110, i32 0, i32 1
  %112 = load i32, ptr %111, align 4, !tbaa !64
  %113 = call ptr @Vga_ManLookup(ptr noundef %106, i32 noundef %109, i32 noundef %112)
  store ptr %113, ptr %10, align 8, !tbaa !34
  %114 = load i32, ptr %9, align 4, !tbaa !8
  %115 = load ptr, ptr %10, align 8, !tbaa !34
  store i32 %114, ptr %115, align 4, !tbaa !8
  br label %116

116:                                              ; preds = %103
  %117 = load i32, ptr %9, align 4, !tbaa !8
  %118 = add nsw i32 %117, 1
  store i32 %118, ptr %9, align 4, !tbaa !8
  br label %90, !llvm.loop !175

119:                                              ; preds = %101
  br label %120

120:                                              ; preds = %119, %3
  %121 = load ptr, ptr %5, align 8, !tbaa !37
  %122 = load i32, ptr %6, align 4, !tbaa !8
  %123 = load i32, ptr %7, align 4, !tbaa !8
  %124 = call ptr @Vga_ManLookup(ptr noundef %121, i32 noundef %122, i32 noundef %123)
  store ptr %124, ptr %10, align 8, !tbaa !34
  %125 = load ptr, ptr %10, align 8, !tbaa !34
  %126 = load i32, ptr %125, align 4, !tbaa !8
  %127 = icmp ne i32 %126, 0
  br i1 %127, label %128, label %133

128:                                              ; preds = %120
  %129 = load ptr, ptr %5, align 8, !tbaa !37
  %130 = load ptr, ptr %10, align 8, !tbaa !34
  %131 = load i32, ptr %130, align 4, !tbaa !8
  %132 = call ptr @Vta_ManObj(ptr noundef %129, i32 noundef %131)
  store ptr %132, ptr %4, align 8
  store i32 1, ptr %11, align 4
  br label %150

133:                                              ; preds = %120
  %134 = load ptr, ptr %5, align 8, !tbaa !37
  %135 = getelementptr inbounds nuw %struct.Vta_Man_t_, ptr %134, i32 0, i32 2
  %136 = load i32, ptr %135, align 8, !tbaa !56
  %137 = add nsw i32 %136, 1
  store i32 %137, ptr %135, align 8, !tbaa !56
  %138 = load ptr, ptr %10, align 8, !tbaa !34
  store i32 %136, ptr %138, align 4, !tbaa !8
  %139 = load ptr, ptr %5, align 8, !tbaa !37
  %140 = load ptr, ptr %10, align 8, !tbaa !34
  %141 = load i32, ptr %140, align 4, !tbaa !8
  %142 = call ptr @Vta_ManObj(ptr noundef %139, i32 noundef %141)
  store ptr %142, ptr %8, align 8, !tbaa !57
  %143 = load i32, ptr %6, align 4, !tbaa !8
  %144 = load ptr, ptr %8, align 8, !tbaa !57
  %145 = getelementptr inbounds nuw %struct.Vta_Obj_t_, ptr %144, i32 0, i32 0
  store i32 %143, ptr %145, align 4, !tbaa !58
  %146 = load i32, ptr %7, align 4, !tbaa !8
  %147 = load ptr, ptr %8, align 8, !tbaa !57
  %148 = getelementptr inbounds nuw %struct.Vta_Obj_t_, ptr %147, i32 0, i32 1
  store i32 %146, ptr %148, align 4, !tbaa !64
  %149 = load ptr, ptr %8, align 8, !tbaa !57
  store ptr %149, ptr %4, align 8
  store i32 1, ptr %11, align 4
  br label %150

150:                                              ; preds = %133, %128
  call void @llvm.lifetime.end.p0(i64 8, ptr %10) #13
  call void @llvm.lifetime.end.p0(i64 4, ptr %9) #13
  call void @llvm.lifetime.end.p0(i64 8, ptr %8) #13
  %151 = load ptr, ptr %4, align 8
  ret ptr %151
}