; Function Attrs: inlinehint nounwind uwtable
define internal fastcc noundef ptr @Vga_ManFindOrAdd(ptr noundef captures(none) %0, i32 noundef %1, i32 noundef %2) unnamed_addr #10 {
  %4 = getelementptr inbounds nuw i8, ptr %0, i64 16
  %5 = load i32, ptr %4, align 8, !tbaa !61
  %6 = getelementptr inbounds nuw i8, ptr %0, i64 20
  %7 = load i32, ptr %6, align 4, !tbaa !118
  %8 = icmp eq i32 %5, %7
  br i1 %8, label %9, label %..critedge_crit_edge

..critedge_crit_edge:                             ; preds = %3
  %.phi.trans.insert = getelementptr inbounds nuw i8, ptr %0, i64 32
  %.pre81 = load ptr, ptr %.phi.trans.insert, align 8, !tbaa !89
  br label %.critedge

9:                                                ; preds = %3
  %10 = getelementptr inbounds nuw i8, ptr %0, i64 40
  %11 = load ptr, ptr %10, align 8, !tbaa !62
  %.not = icmp eq ptr %11, null
  %12 = shl nsw i32 %5, 1
  %13 = sext i32 %12 to i64
  %14 = shl nsw i64 %13, 4
  br i1 %.not, label %17, label %15

15:                                               ; preds = %9
  %16 = tail call ptr @realloc(ptr noundef nonnull %11, i64 noundef %14) #26
  %.pre = load i32, ptr %6, align 4, !tbaa !118
  %.pre84 = shl nsw i32 %.pre, 1
  br label %19

17:                                               ; preds = %9
  %18 = tail call noalias ptr @malloc(i64 noundef %14) #25
  br label %19

19:                                               ; preds = %17, %15
  %.pre-phi = phi i32 [ %12, %17 ], [ %.pre84, %15 ]
  %20 = phi i32 [ %5, %17 ], [ %.pre, %15 ]
  %21 = phi ptr [ %18, %17 ], [ %16, %15 ]
  store ptr %21, ptr %10, align 8, !tbaa !62
  %22 = sext i32 %20 to i64
  %23 = getelementptr inbounds %struct.Vta_Obj_t_, ptr %21, i64 %22
  %24 = shl nsw i64 %22, 4
  tail call void @llvm.memset.p0.i64(ptr align 4 %23, i8 0, i64 %24, i1 false)
  store i32 %.pre-phi, ptr %6, align 4, !tbaa !118
  %25 = getelementptr inbounds nuw i8, ptr %0, i64 32
  %26 = load ptr, ptr %25, align 8, !tbaa !89
  %.not50 = icmp eq ptr %26, null
  br i1 %.not50, label %28, label %27

27:                                               ; preds = %19
  tail call void @free(ptr noundef nonnull %26) #28
  br label %28

28:                                               ; preds = %19, %27
  %29 = getelementptr inbounds nuw i8, ptr %0, i64 24
  %30 = load i32, ptr %29, align 8, !tbaa !90
  %31 = shl nsw i32 %30, 1
  %32 = add i32 %31, -1
  br label %.loopexit.i

.loopexit.i:                                      ; preds = %.loopexit.i.backedge, %28
  %.012.i = phi i32 [ %32, %28 ], [ %33, %.loopexit.i.backedge ]
  %33 = add i32 %.012.i, 1
  %34 = and i32 %.012.i, 1
  %.not.not.i = icmp eq i32 %34, 0
  br i1 %.not.not.i, label %.preheader.i, label %.loopexit.i.backedge

.loopexit.i.backedge:                             ; preds = %.lr.ph.i, %.loopexit.i
  br label %.loopexit.i, !llvm.loop !119

.preheader.i:                                     ; preds = %.loopexit.i
  %.not15.i = icmp ult i32 %33, 9
  br i1 %.not15.i, label %Abc_PrimeCudd.exit, label %.lr.ph.i

35:                                               ; preds = %.lr.ph.i
  %36 = add nuw nsw i32 %.01116.i, 2
  %37 = mul nuw nsw i32 %36, %36
  %.not.i = icmp ugt i32 %37, %33
  br i1 %.not.i, label %Abc_PrimeCudd.exit, label %.lr.ph.i, !llvm.loop !120

.lr.ph.i:                                         ; preds = %.preheader.i, %35
  %.01116.i = phi i32 [ %36, %35 ], [ 3, %.preheader.i ]
  %38 = urem i32 %33, %.01116.i
  %39 = icmp eq i32 %38, 0
  br i1 %39, label %.loopexit.i.backedge, label %35, !llvm.loop !119

Abc_PrimeCudd.exit:                               ; preds = %.preheader.i, %35
  store i32 %33, ptr %29, align 8, !tbaa !90
  %40 = sext i32 %33 to i64
  %41 = tail call noalias ptr @calloc(i64 noundef %40, i64 noundef 4) #27
  store ptr %41, ptr %25, align 8, !tbaa !89
  %42 = load i32, ptr %4, align 8, !tbaa !61
  %43 = icmp sgt i32 %42, 1
  br i1 %43, label %.lr.ph, label %.critedge

.lr.ph:                                           ; preds = %Abc_PrimeCudd.exit
  %44 = load ptr, ptr %10, align 8, !tbaa !62
  br label %45

45:                                               ; preds = %.lr.ph, %Vga_ManLookup.exit
  %indvars.iv = phi i64 [ 1, %.lr.ph ], [ %indvars.iv.next, %Vga_ManLookup.exit ]
  %46 = getelementptr inbounds nuw %struct.Vta_Obj_t_, ptr %44, i64 %indvars.iv
  %47 = getelementptr inbounds nuw i8, ptr %46, i64 8
  store i32 0, ptr %47, align 4, !tbaa !162
  %48 = load i32, ptr %46, align 4, !tbaa !64
  %49 = getelementptr inbounds nuw i8, ptr %46, i64 4
  %50 = load i32, ptr %49, align 4, !tbaa !80
  %51 = load i32, ptr %29, align 8, !tbaa !90
  %52 = add nsw i32 %50, %48
  %53 = add nsw i32 %52, 1
  %54 = mul nsw i32 %53, %52
  %55 = urem i32 %54, %51
  %56 = sext i32 %55 to i64
  %57 = getelementptr inbounds i32, ptr %41, i64 %56
  %58 = load i32, ptr %57, align 4, !tbaa !10
  %.not.i.i = icmp eq i32 %58, 0
  br i1 %.not.i.i, label %Vga_ManLookup.exit, label %Vta_ManObj.exit.i

Vta_ManObj.exit.i:                                ; preds = %45, %65
  %.019.i = phi ptr [ %66, %65 ], [ %57, %45 ]
  %.pn70.in = phi i32 [ %67, %65 ], [ %58, %45 ]
  %.pn70 = sext i32 %.pn70.in to i64
  %.01418.i = getelementptr inbounds %struct.Vta_Obj_t_, ptr %44, i64 %.pn70
  %59 = load i32, ptr %.01418.i, align 4, !tbaa !64
  %60 = icmp eq i32 %59, %48
  br i1 %60, label %61, label %65

61:                                               ; preds = %Vta_ManObj.exit.i
  %62 = getelementptr inbounds nuw i8, ptr %.01418.i, i64 4
  %63 = load i32, ptr %62, align 4, !tbaa !80
  %64 = icmp eq i32 %63, %50
  br i1 %64, label %Vga_ManLookup.exit, label %65

65:                                               ; preds = %61, %Vta_ManObj.exit.i
  %66 = getelementptr inbounds nuw i8, ptr %.01418.i, i64 8
  %67 = load i32, ptr %66, align 4, !tbaa !10
  %.not.i15.i = icmp eq i32 %67, 0
  br i1 %.not.i15.i, label %Vga_ManLookup.exit, label %Vta_ManObj.exit.i

Vga_ManLookup.exit:                               ; preds = %61, %65, %45
  %.0.lcssa.i = phi ptr [ %57, %45 ], [ %.019.i, %61 ], [ %66, %65 ]
  %68 = trunc nuw nsw i64 %indvars.iv to i32
  store i32 %68, ptr %.0.lcssa.i, align 4, !tbaa !10
  %indvars.iv.next = add nuw nsw i64 %indvars.iv, 1
  %69 = load i32, ptr %4, align 8, !tbaa !61
  %70 = sext i32 %69 to i64
  %71 = icmp slt i64 %indvars.iv.next, %70
  br i1 %71, label %45, label %.critedge, !llvm.loop !163

.critedge:                                        ; preds = %Vga_ManLookup.exit, %..critedge_crit_edge, %Abc_PrimeCudd.exit
  %72 = phi i32 [ %5, %..critedge_crit_edge ], [ %42, %Abc_PrimeCudd.exit ], [ %69, %Vga_ManLookup.exit ]
  %73 = phi ptr [ %.pre81, %..critedge_crit_edge ], [ %41, %Abc_PrimeCudd.exit ], [ %41, %Vga_ManLookup.exit ]
  %74 = getelementptr inbounds nuw i8, ptr %0, i64 24
  %75 = load i32, ptr %74, align 8, !tbaa !90
  %76 = add nsw i32 %2, %1
  %77 = add nsw i32 %76, 1
  %78 = mul nsw i32 %77, %76
  %79 = urem i32 %78, %75
  %80 = sext i32 %79 to i64
  %81 = getelementptr inbounds i32, ptr %73, i64 %80
  %82 = load i32, ptr %81, align 4, !tbaa !10
  %.not.i.i55 = icmp eq i32 %82, 0
  %.phi.trans.insert82 = getelementptr inbounds nuw i8, ptr %0, i64 40
  %.pre83 = load ptr, ptr %.phi.trans.insert82, align 8, !tbaa !62
  br i1 %.not.i.i55, label %Vga_ManLookup.exit63.thread, label %Vta_ManObj.exit16.i61

Vta_ManObj.exit16.i61:                            ; preds = %.critedge, %89
  %.pr = phi i32 [ %91, %89 ], [ %82, %.critedge ]
  %.pn = sext i32 %.pr to i64
  %.01418.i59 = getelementptr inbounds %struct.Vta_Obj_t_, ptr %.pre83, i64 %.pn
  %83 = load i32, ptr %.01418.i59, align 4, !tbaa !64
  %84 = icmp eq i32 %83, %1
  br i1 %84, label %85, label %89

85:                                               ; preds = %Vta_ManObj.exit16.i61
  %86 = getelementptr inbounds nuw i8, ptr %.01418.i59, i64 4
  %87 = load i32, ptr %86, align 4, !tbaa !80
  %88 = icmp eq i32 %87, %2
  br i1 %88, label %Vta_ManObj.exit, label %89

89:                                               ; preds = %85, %Vta_ManObj.exit16.i61
  %90 = getelementptr inbounds nuw i8, ptr %.01418.i59, i64 8
  %91 = load i32, ptr %90, align 4, !tbaa !10
  %.not.i15.i60 = icmp eq i32 %91, 0
  br i1 %.not.i15.i60, label %Vga_ManLookup.exit63.thread.loopexit, label %Vta_ManObj.exit16.i61

Vga_ManLookup.exit63.thread.loopexit:             ; preds = %89
  %92 = getelementptr inbounds nuw i8, ptr %.01418.i59, i64 8
  br label %Vga_ManLookup.exit63.thread

Vga_ManLookup.exit63.thread:                      ; preds = %.critedge, %Vga_ManLookup.exit63.thread.loopexit
  %.0.lcssa.i6269 = phi ptr [ %92, %Vga_ManLookup.exit63.thread.loopexit ], [ %81, %.critedge ]
  %93 = add nsw i32 %72, 1
  store i32 %93, ptr %4, align 8, !tbaa !61
  store i32 %72, ptr %.0.lcssa.i6269, align 4, !tbaa !10
  %.not.i65 = icmp ne i32 %72, 0
  tail call void @llvm.assume(i1 %.not.i65)
  %94 = sext i32 %72 to i64
  %95 = getelementptr inbounds %struct.Vta_Obj_t_, ptr %.pre83, i64 %94
  store i32 %1, ptr %95, align 4, !tbaa !64
  %96 = getelementptr inbounds nuw i8, ptr %95, i64 4
  store i32 %2, ptr %96, align 4, !tbaa !80
  br label %Vta_ManObj.exit

Vta_ManObj.exit:                                  ; preds = %85, %Vga_ManLookup.exit63.thread
  %.044 = phi ptr [ %95, %Vga_ManLookup.exit63.thread ], [ %.01418.i59, %85 ]
  ret ptr %.044
}